target datalayout = "e-m:e-p270:32:32-p271:32:32-p272:64:64-i64:64-i128:128-f80:128-n8:16:32:64-S128"
target triple = "x86_64-pc-linux-gnu"

%struct.If_LibLut_t_ = type { ptr, i32, i32, [33 x float], [33 x [33 x float]] }

; Function Attrs: inlinehint nounwind uwtable
define internal ptr @Abc_UtilStrsav(ptr noundef %0) #2 {
  %2 = alloca ptr, align 8
  store ptr %0, ptr %2, align 8, !tbaa !3
  %3 = load ptr, ptr %2, align 8, !tbaa !3
  %4 = icmp ne ptr %3, null
  br i1 %4, label %5, label %13

5:                                                ; preds = %1
  %6 = load ptr, ptr %2, align 8, !tbaa !3
  %7 = call i64 @strlen(ptr noundef %6) #14
  %8 = add i64 %7, 1
  %9 = mul i64 1, %8
  %10 = call noalias ptr @malloc(i64 noundef %9) #13
  %11 = load ptr, ptr %2, align 8, !tbaa !3
  %12 = call ptr @strcpy(ptr noundef %10, ptr noundef %11) #12
  br label %14

13:                                               ; preds = %1
  br label %14

14:                                               ; preds = %13, %5
  %15 = phi ptr [ %12, %5 ], [ null, %13 ]
  ret ptr %15
}

; Function Attrs: nounwind uwtable
define ptr @If_LibLutDup(ptr noundef %0) #0 {
  %2 = alloca ptr, align 8
  %3 = alloca ptr, align 8
  store ptr %0, ptr %2, align 8, !tbaa !15
  call void @llvm.lifetime.start.p0(i64 8, ptr %3) #12
  %4 = call noalias ptr @malloc(i64 noundef 4504) #13
  store ptr %4, ptr %3, align 8, !tbaa !15
  %5 = load ptr, ptr %3, align 8, !tbaa !15
  %6 = load ptr, ptr %2, align 8, !tbaa !15
  call void @llvm.memcpy.p0.p0.i64(ptr align 8 %5, ptr align 8 %6, i64 4504, i1 false), !tbaa.struct !44
  %7 = load ptr, ptr %3, align 8, !tbaa !15
  %8 = getelementptr inbounds nuw %struct.If_LibLut_t_, ptr %7, i32 0, i32 0
  %9 = load ptr, ptr %8, align 8, !tbaa !19
  %10 = call ptr @Abc_UtilStrsav(ptr noundef %9)
  %11 = load ptr, ptr %3, align 8, !tbaa !15
  %12 = getelementptr inbounds nuw %struct.If_LibLut_t_, ptr %11, i32 0, i32 0
  store ptr %10, ptr %12, align 8, !tbaa !19
  %13 = load ptr, ptr %3, align 8, !tbaa !15
  call void @llvm.lifetime.end.p0(i64 8, ptr %3) #12
  ret ptr %13
}

; Function Attrs: nounwind uwtable
define ptr @If_LibLutSetSimple(i32 noundef %0) #0 {
  %2 = alloca ptr, align 8
  %3 = alloca i32, align 4
  %4 = alloca %struct.If_LibLut_t_, align 8
  %5 = alloca %struct.If_LibLut_t_, align 8
  %6 = alloca %struct.If_LibLut_t_, align 8
  %7 = alloca %struct.If_LibLut_t_, align 8
  %8 = alloca %struct.If_LibLut_t_, align 8
  %9 = alloca %struct.If_LibLut_t_, align 8
  %10 = alloca %struct.If_LibLut_t_, align 8
  %11 = alloca %struct.If_LibLut_t_, align 8
  %12 = alloca ptr, align 8
  %13 = alloca i32, align 4
  store i32 %0, ptr %3, align 4, !tbaa !17
  call void @llvm.lifetime.start.p0(i64 4504, ptr %4) #12
  call void @llvm.memcpy.p0.p0.i64(ptr align 8 %4, ptr align 8 @__const.If_LibLutSetSimple.s_LutLib10, i64 4504, i1 false)
  call void @llvm.lifetime.start.p0(i64 4504, ptr %5) #12
  call void @llvm.memcpy.p0.p0.i64(ptr align 8 %5, ptr align 8 @__const.If_LibLutSetSimple.s_LutLib9, i64 4504, i1 false)
  call void @llvm.lifetime.start.p0(i64 4504, ptr %6) #12
  call void @llvm.memcpy.p0.p0.i64(ptr align 8 %6, ptr align 8 @__const.If_LibLutSetSimple.s_LutLib8, i64 4504, i1 false)
  call void @llvm.lifetime.start.p0(i64 4504, ptr %7) #12
  call void @llvm.memcpy.p0.p0.i64(ptr align 8 %7, ptr align 8 @__const.If_LibLutSetSimple.s_LutLib7, i64 4504, i1 false)
  call void @llvm.lifetime.start.p0(i64 4504, ptr %8) #12
  call void @llvm.memcpy.p0.p0.i64(ptr align 8 %8, ptr align 8 @__const.If_LibLutSetSimple.s_LutLib6, i64 4504, i1 false)
  call void @llvm.lifetime.start.p0(i64 4504, ptr %9) #12
  call void @llvm.memcpy.p0.p0.i64(ptr align 8 %9, ptr align 8 @__const.If_LibLutSetSimple.s_LutLib5, i64 4504, i1 false)
  call void @llvm.lifetime.start.p0(i64 4504, ptr %10) #12
  call void @llvm.memcpy.p0.p0.i64(ptr align 8 %10, ptr align 8 @__const.If_LibLutSetSimple.s_LutLib4, i64 4504, i1 false)
  call void @llvm.lifetime.start.p0(i64 4504, ptr %11) #12
  call void @llvm.memcpy.p0.p0.i64(ptr align 8 %11, ptr align 8 @__const.If_LibLutSetSimple.s_LutLib3, i64 4504, i1 false)
  call void @llvm.lifetime.start.p0(i64 8, ptr %12) #12
  %14 = load i32, ptr %3, align 4, !tbaa !17
  switch i32 %14, label %23 [
    i32 3, label %15
    i32 4, label %16
    i32 5, label %17
    i32 6, label %18
    i32 7, label %19
    i32 8, label %20
    i32 9, label %21
    i32 10, label %22
  ]

15:                                               ; preds = %1
  store ptr %11, ptr %12, align 8, !tbaa !15
  br label %24

16:                                               ; preds = %1
  store ptr %10, ptr %12, align 8, !tbaa !15
  br label %24

17:                                               ; preds = %1
  store ptr %9, ptr %12, align 8, !tbaa !15
  br label %24

18:                                               ; preds = %1
  store ptr %8, ptr %12, align 8, !tbaa !15
  br label %24

19:                                               ; preds = %1
  store ptr %7, ptr %12, align 8, !tbaa !15
  br label %24

20:                                               ; preds = %1
  store ptr %6, ptr %12, align 8, !tbaa !15
  br label %24

21:                                               ; preds = %1
  store ptr %5, ptr %12, align 8, !tbaa !15
  br label %24

22:                                               ; preds = %1
  store ptr %4, ptr %12, align 8, !tbaa !15
  br label %24

23:                                               ; preds = %1
  store ptr null, ptr %12, align 8, !tbaa !15
  br label %24

24:                                               ; preds = %23, %22, %21, %20, %19, %18, %17, %16, %15
  %25 = load ptr, ptr %12, align 8, !tbaa !15
  %26 = icmp eq ptr %25, null
  br i1 %26, label %27, label %28

27:                                               ; preds = %24
  store ptr null, ptr %2, align 8
  store i32 1, ptr %13, align 4
  br label %31

28:                                               ; preds = %24
  %29 = load ptr, ptr %12, align 8, !tbaa !15
  %30 = call ptr @If_LibLutDup(ptr noundef %29)
  store ptr %30, ptr %2, align 8
  store i32 1, ptr %13, align 4
  br label %31

31:                                               ; preds = %28, %27
  call void @llvm.lifetime.end.p0(i64 8, ptr %12) #12
  call void @llvm.lifetime.end.p0(i64 4504, ptr %11) #12
  call void @llvm.lifetime.end.p0(i64 4504, ptr %10) #12
  call void @llvm.lifetime.end.p0(i64 4504, ptr %9) #12
  call void @llvm.lifetime.end.p0(i64 4504, ptr %8) #12
  call void @llvm.lifetime.end.p0(i64 4504, ptr %7) #12
  call void @llvm.lifetime.end.p0(i64 4504, ptr %6) #12
  call void @llvm.lifetime.end.p0(i64 4504, ptr %5) #12
  call void @llvm.lifetime.end.p0(i64 4504, ptr %4) #12
  %32 = load ptr, ptr %2, align 8
  ret ptr %32
}