; Function Attrs: mustprogress nofree nounwind willreturn uwtable
define noalias noundef ptr @If_LibLutSetSimple(i32 noundef %0) local_unnamed_addr #9 {
  %switch.tableidx = add i32 %0, -3
  %2 = icmp ult i32 %switch.tableidx, 8
  br i1 %2, label %switch.lookup, label %12

switch.lookup:                                    ; preds = %1
  %3 = zext nneg i32 %switch.tableidx to i64
  %switch.gep = getelementptr inbounds nuw [8 x ptr], ptr @switch.table.If_LibLutSetSimple, i64 0, i64 %3
  %switch.load = load ptr, ptr %switch.gep, align 8
  %4 = tail call noalias dereferenceable_or_null(4504) ptr @malloc(i64 noundef 4504) #19
  tail call void @llvm.memcpy.p0.p0.i64(ptr noundef nonnull align 8 dereferenceable(4504) %4, ptr noundef nonnull readonly align 8 dereferenceable(4504) %switch.load, i64 4504, i1 false), !tbaa.struct !38
  %5 = load ptr, ptr %4, align 8, !tbaa !32
  %.not.i.i = icmp eq ptr %5, null
  br i1 %.not.i.i, label %If_LibLutDup.exit, label %6

6:                                                ; preds = %switch.lookup
  %7 = tail call i64 @strlen(ptr noundef nonnull readonly dereferenceable(1) %5) #20
  %8 = add i64 %7, 1
  %9 = tail call noalias ptr @malloc(i64 noundef %8) #19
  %10 = tail call ptr @strcpy(ptr noundef nonnull dereferenceable(1) %9, ptr noundef nonnull readonly dereferenceable(1) %5) #21
  br label %If_LibLutDup.exit

If_LibLutDup.exit:                                ; preds = %switch.lookup, %6
  %11 = phi ptr [ %9, %6 ], [ null, %switch.lookup ]
  store ptr %11, ptr %4, align 8, !tbaa !32
  br label %12

12:                                               ; preds = %1, %If_LibLutDup.exit
  %.03 = phi ptr [ %4, %If_LibLutDup.exit ], [ null, %1 ]
  ret ptr %.03
}